; ModuleID = 'source-C-CXX/52/1041.c'
source_filename = "source-C-CXX/52/1041.c"
target datalayout = "e-m:e-p270:32:32-p271:32:32-p272:64:64-i64:64-f80:128-n8:16:32:64-S128"
target triple = "x86_64-pc-linux-gnu"

@.str = private unnamed_addr constant [3 x i8] c"%d\00", align 1
@.str.1 = private unnamed_addr constant [4 x i8] c"%d,\00", align 1
@.str.2 = private unnamed_addr constant [2 x i8] c" \00", align 1

; Function Attrs: nofree nounwind sspstrong uwtable
define dso_local i32 @main() local_unnamed_addr #0 {
  %1 = alloca i32, align 4
  %2 = alloca [300 x i32], align 16
  %3 = alloca [300 x i32], align 16
  %4 = bitcast i32* %1 to i8*
  call void @llvm.lifetime.start.p0i8(i64 4, i8* nonnull %4) #4
  %5 = bitcast [300 x i32]* %2 to i8*
  call void @llvm.lifetime.start.p0i8(i64 1200, i8* nonnull %5) #4
  %6 = bitcast [300 x i32]* %3 to i8*
  call void @llvm.lifetime.start.p0i8(i64 1200, i8* nonnull %6) #4
  call void @llvm.memset.p0i8.i64(i8* noundef nonnull align 16 dereferenceable(1200) %6, i8 0, i64 1200, i1 false)
  %7 = call i32 (i8*, ...) @__isoc99_scanf(i8* getelementptr inbounds ([3 x i8], [3 x i8]* @.str, i64 0, i64 0), i32* nonnull %1)
  %8 = load i32, i32* %1, align 4, !tbaa !5
  %9 = icmp sgt i32 %8, 0
  br i1 %9, label %10, label %64

10:                                               ; preds = %0, %10
  %11 = phi i64 [ %14, %10 ], [ 0, %0 ]
  %12 = getelementptr inbounds [300 x i32], [300 x i32]* %2, i64 0, i64 %11
  %13 = call i32 (i8*, ...) @__isoc99_scanf(i8* getelementptr inbounds ([3 x i8], [3 x i8]* @.str, i64 0, i64 0), i32* nonnull %12)
  %14 = add nuw nsw i64 %11, 1
  %15 = load i32, i32* %1, align 4, !tbaa !5
  %16 = sext i32 %15 to i64
  %17 = icmp slt i64 %14, %16
  br i1 %17, label %10, label %18, !llvm.loop !9

18:                                               ; preds = %10
  %19 = getelementptr inbounds [300 x i32], [300 x i32]* %2, i64 0, i64 0
  %20 = load i32, i32* %19, align 16, !tbaa !5
  %21 = getelementptr inbounds [300 x i32], [300 x i32]* %3, i64 0, i64 0
  store i32 %20, i32* %21, align 16, !tbaa !5
  %22 = icmp sgt i32 %15, 1
  br i1 %22, label %23, label %64

23:                                               ; preds = %18
  %24 = zext i32 %15 to i64
  br label %25

25:                                               ; preds = %23, %53
  %26 = phi i64 [ 1, %23 ], [ %55, %53 ]
  %27 = phi i32 [ 0, %23 ], [ %54, %53 ]
  %28 = getelementptr inbounds [300 x i32], [300 x i32]* %2, i64 0, i64 %26
  %29 = load i32, i32* %28, align 4, !tbaa !5
  %30 = trunc i64 %26 to i32
  br label %35

31:                                               ; preds = %53
  %32 = icmp sgt i32 %54, 0
  br i1 %32, label %33, label %64

33:                                               ; preds = %31
  %34 = zext i32 %54 to i64
  br label %57

35:                                               ; preds = %25, %41
  %36 = phi i64 [ 0, %25 ], [ %43, %41 ]
  %37 = phi i32 [ 0, %25 ], [ %42, %41 ]
  %38 = getelementptr inbounds [300 x i32], [300 x i32]* %2, i64 0, i64 %36
  %39 = load i32, i32* %38, align 4, !tbaa !5
  %40 = icmp eq i32 %29, %39
  br i1 %40, label %45, label %41

41:                                               ; preds = %35
  %42 = add nuw nsw i32 %37, 1
  %43 = add nuw nsw i64 %36, 1
  %44 = icmp eq i64 %43, %26
  br i1 %44, label %45, label %35, !llvm.loop !11

45:                                               ; preds = %35, %41
  %46 = phi i32 [ %37, %35 ], [ %30, %41 ]
  %47 = zext i32 %46 to i64
  %48 = icmp eq i64 %26, %47
  br i1 %48, label %49, label %53

49:                                               ; preds = %45
  %50 = add nsw i32 %27, 1
  %51 = sext i32 %50 to i64
  %52 = getelementptr inbounds [300 x i32], [300 x i32]* %3, i64 0, i64 %51
  store i32 %29, i32* %52, align 4, !tbaa !5
  br label %53

53:                                               ; preds = %49, %45
  %54 = phi i32 [ %50, %49 ], [ %27, %45 ]
  %55 = add nuw nsw i64 %26, 1
  %56 = icmp eq i64 %55, %24
  br i1 %56, label %31, label %25, !llvm.loop !12

57:                                               ; preds = %33, %57
  %58 = phi i64 [ 0, %33 ], [ %62, %57 ]
  %59 = getelementptr inbounds [300 x i32], [300 x i32]* %3, i64 0, i64 %58
  %60 = load i32, i32* %59, align 4, !tbaa !5
  %61 = call i32 (i8*, ...) @printf(i8* nonnull dereferenceable(1) getelementptr inbounds ([4 x i8], [4 x i8]* @.str.1, i64 0, i64 0), i32 %60)
  %62 = add nuw nsw i64 %58, 1
  %63 = icmp eq i64 %62, %34
  br i1 %63, label %64, label %57, !llvm.loop !13

64:                                               ; preds = %57, %0, %18, %31
  %65 = phi i32 [ %54, %31 ], [ 0, %18 ], [ 0, %0 ], [ %54, %57 ]
  %66 = sext i32 %65 to i64
  %67 = getelementptr inbounds [300 x i32], [300 x i32]* %3, i64 0, i64 %66
  %68 = load i32, i32* %67, align 4, !tbaa !5
  %69 = call i32 (i8*, ...) @printf(i8* nonnull dereferenceable(1) getelementptr inbounds ([3 x i8], [3 x i8]* @.str, i64 0, i64 0), i32 %68)
  %70 = call i32 (i8*, ...) @__isoc99_scanf(i8* getelementptr inbounds ([2 x i8], [2 x i8]* @.str.2, i64 0, i64 0))
  call void @llvm.lifetime.end.p0i8(i64 1200, i8* nonnull %6) #4
  call void @llvm.lifetime.end.p0i8(i64 1200, i8* nonnull %5) #4
  call void @llvm.lifetime.end.p0i8(i64 4, i8* nonnull %4) #4
  ret i32 0
}

; Function Attrs: argmemonly mustprogress nofree nosync nounwind willreturn
declare void @llvm.lifetime.start.p0i8(i64 immarg, i8* nocapture) #1

; Function Attrs: argmemonly mustprogress nofree nounwind willreturn writeonly
declare void @llvm.memset.p0i8.i64(i8* nocapture writeonly, i8, i64, i1 immarg) #2

; Function Attrs: nofree nounwind
declare noundef i32 @__isoc99_scanf(i8* nocapture noundef readonly, ...) local_unnamed_addr #3

; Function Attrs: nofree nounwind
declare noundef i32 @printf(i8* nocapture noundef readonly, ...) local_unnamed_addr #3

; Function Attrs: argmemonly mustprogress nofree nosync nounwind willreturn
declare void @llvm.lifetime.end.p0i8(i64 immarg, i8* nocapture) #1


!llvm.module.flags = !{!0, !1, !2, !3}
!llvm.ident = !{!4}

!0 = !{i32 1, !"wchar_size", i32 4}
!1 = !{i32 7, !"PIC Level", i32 2}
!2 = !{i32 7, !"PIE Level", i32 2}
!3 = !{i32 7, !"uwtable", i32 1}
!4 = !{!"clang version 13.0.0"}
!5 = !{!6, !6, i64 0}
!6 = !{!"int", !7, i64 0}
!7 = !{!"omnipotent char", !8, i64 0}
!8 = !{!"Simple C/C++ TBAA"}
!9 = distinct !{!9, !10}
!10 = !{!"llvm.loop.mustprogress"}
!11 = distinct !{!11, !10}
!12 = distinct !{!12, !10}
!13 = distinct !{!13, !10}
